target datalayout = "e-m:e-p270:32:32-p271:32:32-p272:64:64-i64:64-i128:128-f80:128-n8:16:32:64-S128"
target triple = "x86_64-pc-linux-gnu"

%struct._zval_struct = type { %union._zend_value, %union.anon, %union.anon.2 }
%union._zend_value = type { i64 }
%union.anon = type { i32 }
%union.anon.2 = type { i32 }
%struct._zend_execute_data = type { ptr, ptr, ptr, ptr, %struct._zval_struct, ptr, ptr, ptr, ptr }

; Function Attrs: nounwind uwtable
define hidden void @zif_posix_sysconf(ptr noundef %0, ptr noundef %1) #0 {
  %3 = alloca ptr, align 8
  %4 = alloca ptr, align 8
  %5 = alloca i1, align 1
  %6 = alloca ptr, align 8
  %7 = alloca ptr, align 8
  %8 = alloca ptr, align 8
  %9 = alloca i8, align 1
  %10 = alloca i32, align 4
  %11 = alloca i8, align 1
  %12 = alloca ptr, align 8
  %13 = alloca ptr, align 8
  %14 = alloca ptr, align 8
  %15 = alloca i8, align 1
  %16 = alloca i32, align 4
  %17 = alloca ptr, align 8
  %18 = alloca ptr, align 8
  %19 = alloca i64, align 8
  %20 = alloca i32, align 4
  %21 = alloca i32, align 4
  %22 = alloca i32, align 4
  %23 = alloca i32, align 4
  %24 = alloca i32, align 4
  %25 = alloca ptr, align 8
  %26 = alloca ptr, align 8
  %27 = alloca i32, align 4
  %28 = alloca ptr, align 8
  %29 = alloca i8, align 1
  %30 = alloca i8, align 1
  %31 = alloca i32, align 4
  %32 = alloca ptr, align 8
  store ptr %0, ptr %17, align 8
  store ptr %1, ptr %18, align 8
  br label %33

33:                                               ; preds = %2
  store i32 0, ptr %20, align 4
  store i32 1, ptr %21, align 4
  store i32 1, ptr %22, align 4
  %34 = load ptr, ptr %17, align 8
  %35 = getelementptr inbounds %struct._zend_execute_data, ptr %34, i32 0, i32 4
  %36 = getelementptr inbounds %struct._zval_struct, ptr %35, i32 0, i32 2
  %37 = load i32, ptr %36, align 4
  store i32 %37, ptr %23, align 4
  store i32 0, ptr %24, align 4
  store ptr null, ptr %26, align 8
  store i32 0, ptr %27, align 4
  store ptr null, ptr %28, align 8
  store i8 0, ptr %29, align 1
  store i8 0, ptr %30, align 1
  store i32 0, ptr %31, align 4
  br label %38

38:                                               ; preds = %33
  %39 = load i32, ptr %23, align 4
  %40 = load i32, ptr %21, align 4
  %41 = icmp ult i32 %39, %40
  %42 = xor i1 %41, true
  %43 = xor i1 %42, true
  %44 = zext i1 %43 to i32
  %45 = sext i32 %44 to i64
  %46 = icmp ne i64 %45, 0
  br i1 %46, label %56, label %47

47:                                               ; preds = %38
  %48 = load i32, ptr %23, align 4
  %49 = load i32, ptr %22, align 4
  %50 = icmp ugt i32 %48, %49
  %51 = xor i1 %50, true
  %52 = xor i1 %51, true
  %53 = zext i1 %52 to i32
  %54 = sext i32 %53 to i64
  %55 = icmp ne i64 %54, 0
  br i1 %55, label %56, label %59

56:                                               ; preds = %47, %38
  %57 = load i32, ptr %21, align 4
  %58 = load i32, ptr %22, align 4
  call void @zend_wrong_parameters_count_error(i32 noundef %57, i32 noundef %58)
  store i32 1, ptr %31, align 4
  br label %170

59:                                               ; preds = %47
  %60 = load ptr, ptr %17, align 8
  %61 = getelementptr inbounds %struct._zval_struct, ptr %60, i64 4
  store ptr %61, ptr %25, align 8
  %62 = load i32, ptr %24, align 4
  %63 = add i32 %62, 1
  store i32 %63, ptr %24, align 4
  %64 = load i32, ptr %24, align 4
  %65 = load i32, ptr %21, align 4
  %66 = icmp ule i32 %64, %65
  br i1 %66, label %72, label %67

67:                                               ; preds = %59
  %68 = load i8, ptr %30, align 1
  %69 = trunc i8 %68 to i1
  %70 = zext i1 %69 to i32
  %71 = icmp eq i32 %70, 1
  br label %72

72:                                               ; preds = %67, %59
  %73 = phi i1 [ true, %59 ], [ %71, %67 ]
  call void @llvm.assume(i1 %73)
  %74 = load i32, ptr %24, align 4
  %75 = load i32, ptr %21, align 4
  %76 = icmp ugt i32 %74, %75
  br i1 %76, label %82, label %77

77:                                               ; preds = %72
  %78 = load i8, ptr %30, align 1
  %79 = trunc i8 %78 to i1
  %80 = zext i1 %79 to i32
  %81 = icmp eq i32 %80, 0
  br label %82

82:                                               ; preds = %77, %72
  %83 = phi i1 [ true, %72 ], [ %81, %77 ]
  call void @llvm.assume(i1 %83)
  %84 = load i8, ptr %30, align 1
  %85 = trunc i8 %84 to i1
  br i1 %85, label %86, label %97

86:                                               ; preds = %82
  %87 = load i32, ptr %24, align 4
  %88 = load i32, ptr %23, align 4
  %89 = icmp ugt i32 %87, %88
  %90 = xor i1 %89, true
  %91 = xor i1 %90, true
  %92 = zext i1 %91 to i32
  %93 = sext i32 %92 to i64
  %94 = icmp ne i64 %93, 0
  br i1 %94, label %95, label %96

95:                                               ; preds = %86
  br label %170

96:                                               ; preds = %86
  br label %97

97:                                               ; preds = %96, %82
  %98 = load ptr, ptr %25, align 8
  %99 = getelementptr inbounds %struct._zval_struct, ptr %98, i32 1
  store ptr %99, ptr %25, align 8
  %100 = load ptr, ptr %25, align 8
  store ptr %100, ptr %26, align 8
  %101 = load ptr, ptr %26, align 8
  %102 = load i32, ptr %24, align 4
  store ptr %101, ptr %12, align 8
  store ptr %19, ptr %13, align 8
  store ptr %29, ptr %14, align 8
  store i8 0, ptr %15, align 1
  store i32 %102, ptr %16, align 4
  %103 = load ptr, ptr %12, align 8
  %104 = load ptr, ptr %13, align 8
  %105 = load ptr, ptr %14, align 8
  %106 = load i8, ptr %15, align 1
  %107 = trunc i8 %106 to i1
  %108 = load i32, ptr %16, align 4
  store ptr %103, ptr %6, align 8
  store ptr %104, ptr %7, align 8
  store ptr %105, ptr %8, align 8
  %109 = zext i1 %107 to i8
  store i8 %109, ptr %9, align 1
  store i32 %108, ptr %10, align 4
  store i8 0, ptr %11, align 1
  %110 = load i8, ptr %9, align 1
  %111 = trunc i8 %110 to i1
  br i1 %111, label %112, label %114

112:                                              ; preds = %97
  %113 = load ptr, ptr %8, align 8
  store i8 0, ptr %113, align 1
  br label %114

114:                                              ; preds = %112, %97
  %115 = load ptr, ptr %6, align 8
  store ptr %115, ptr %3, align 8
  %116 = load ptr, ptr %3, align 8
  %117 = getelementptr inbounds %struct._zval_struct, ptr %116, i32 0, i32 1
  %118 = load i8, ptr %117, align 8
  %119 = zext i8 %118 to i32
  %120 = icmp eq i32 %119, 4
  br i1 %120, label %121, label %125

121:                                              ; preds = %114
  %122 = load ptr, ptr %6, align 8
  %123 = load i64, ptr %122, align 8
  %124 = load ptr, ptr %7, align 8
  store i64 %123, ptr %124, align 8
  br label %151

125:                                              ; preds = %114
  %126 = load i8, ptr %9, align 1
  %127 = trunc i8 %126 to i1
  br i1 %127, label %128, label %138

128:                                              ; preds = %125
  %129 = load ptr, ptr %6, align 8
  store ptr %129, ptr %4, align 8
  %130 = load ptr, ptr %4, align 8
  %131 = getelementptr inbounds %struct._zval_struct, ptr %130, i32 0, i32 1
  %132 = load i8, ptr %131, align 8
  %133 = zext i8 %132 to i32
  %134 = icmp eq i32 %133, 1
  br i1 %134, label %135, label %138

135:                                              ; preds = %128
  %136 = load ptr, ptr %8, align 8
  store i8 1, ptr %136, align 1
  %137 = load ptr, ptr %7, align 8
  store i64 0, ptr %137, align 8
  br label %151

138:                                              ; preds = %128, %125
  %139 = load i8, ptr %11, align 1
  %140 = trunc i8 %139 to i1
  br i1 %140, label %141, label %146

141:                                              ; preds = %138
  %142 = load ptr, ptr %6, align 8
  %143 = load ptr, ptr %7, align 8
  %144 = load i32, ptr %10, align 4
  %145 = call zeroext i1 @zend_flf_parse_arg_long_slow(ptr noundef %142, ptr noundef %143, i32 noundef %144) #9
  store i1 %145, ptr %5, align 1
  br label %152

146:                                              ; preds = %138
  %147 = load ptr, ptr %6, align 8
  %148 = load ptr, ptr %7, align 8
  %149 = load i32, ptr %10, align 4
  %150 = call zeroext i1 @zend_parse_arg_long_slow(ptr noundef %147, ptr noundef %148, i32 noundef %149) #9
  store i1 %150, ptr %5, align 1
  br label %152

151:                                              ; preds = %135, %121
  store i1 true, ptr %5, align 1
  br label %152

152:                                              ; preds = %151, %146, %141
  %153 = load i1, ptr %5, align 1
  %154 = xor i1 %153, true
  %155 = xor i1 %154, true
  %156 = xor i1 %155, true
  %157 = zext i1 %156 to i32
  %158 = sext i32 %157 to i64
  %159 = icmp ne i64 %158, 0
  br i1 %159, label %160, label %161

160:                                              ; preds = %152
  store i32 0, ptr %27, align 4
  store i32 9, ptr %31, align 4
  br label %170

161:                                              ; preds = %152
  %162 = load i32, ptr %24, align 4
  %163 = load i32, ptr %22, align 4
  %164 = icmp eq i32 %162, %163
  br i1 %164, label %168, label %165

165:                                              ; preds = %161
  %166 = load i32, ptr %22, align 4
  %167 = icmp eq i32 %166, -1
  br label %168

168:                                              ; preds = %165, %161
  %169 = phi i1 [ true, %161 ], [ %167, %165 ]
  call void @llvm.assume(i1 %169)
  br label %170

170:                                              ; preds = %168, %160, %95, %56
  %171 = load i32, ptr %31, align 4
  %172 = icmp ne i32 %171, 0
  %173 = xor i1 %172, true
  %174 = xor i1 %173, true
  %175 = zext i1 %174 to i32
  %176 = sext i32 %175 to i64
  %177 = icmp ne i64 %176, 0
  br i1 %177, label %178, label %184

178:                                              ; preds = %170
  %179 = load i32, ptr %31, align 4
  %180 = load i32, ptr %24, align 4
  %181 = load ptr, ptr %28, align 8
  %182 = load i32, ptr %27, align 4
  %183 = load ptr, ptr %26, align 8
  call void @zend_wrong_parameter_error(i32 noundef %179, i32 noundef %180, ptr noundef %181, i32 noundef %182, ptr noundef %183)
  br label %197

184:                                              ; preds = %170
  br label %185

185:                                              ; preds = %184
  br label %186

186:                                              ; preds = %185
  br label %187

187:                                              ; preds = %186
  %188 = load ptr, ptr %18, align 8
  store ptr %188, ptr %32, align 8
  %189 = load i64, ptr %19, align 8
  %190 = trunc i64 %189 to i32
  %191 = call i64 @sysconf(i32 noundef %190) #9
  %192 = load ptr, ptr %32, align 8
  %193 = getelementptr inbounds %struct._zval_struct, ptr %192, i32 0, i32 0
  store i64 %191, ptr %193, align 8
  %194 = load ptr, ptr %32, align 8
  %195 = getelementptr inbounds %struct._zval_struct, ptr %194, i32 0, i32 1
  store i32 4, ptr %195, align 8
  br label %196

196:                                              ; preds = %187
  br label %197

197:                                              ; preds = %196, %178
  ret void
}