; Function Attrs: nounwind uwtable
define hidden void @zif_posix_sysconf(ptr noundef %0, ptr nocapture noundef writeonly %1) #0 {
  %3 = alloca i64, align 8
  %4 = getelementptr inbounds i8, ptr %0, i64 44
  %5 = load i32, ptr %4, align 4
  %cond = icmp eq i32 %5, 1
  br i1 %cond, label %6, label %.thread79

6:                                                ; preds = %2
  %7 = getelementptr inbounds i8, ptr %0, i64 80
  %8 = getelementptr inbounds i8, ptr %0, i64 88
  %9 = load i8, ptr %8, align 8
  %10 = icmp eq i8 %9, 4
  br i1 %10, label %.thread69, label %12

.thread69:                                        ; preds = %6
  %11 = load i64, ptr %7, align 8
  store i64 %11, ptr %3, align 8
  br label %.thread87

12:                                               ; preds = %6
  %13 = call zeroext i1 @zend_parse_arg_long_slow(ptr noundef nonnull %7, ptr noundef nonnull %3, i32 noundef 1) #11
  %.fr = freeze i1 %13
  br i1 %.fr, label %..thread87_crit_edge, label %14

..thread87_crit_edge:                             ; preds = %12
  %.pre = load i64, ptr %3, align 8
  br label %.thread87

.thread79:                                        ; preds = %2
  tail call void @zend_wrong_parameters_count_error(i32 noundef 1, i32 noundef 1) #11
  br label %14

14:                                               ; preds = %12, %.thread79
  %.05786 = phi i32 [ 1, %.thread79 ], [ 9, %12 ]
  %.05885 = phi i32 [ 0, %.thread79 ], [ 1, %12 ]
  %.06084 = phi ptr [ null, %.thread79 ], [ %7, %12 ]
  call void @zend_wrong_parameter_error(i32 noundef %.05786, i32 noundef %.05885, ptr noundef null, i32 noundef 0, ptr noundef %.06084) #11
  br label %19

.thread87:                                        ; preds = %..thread87_crit_edge, %.thread69
  %15 = phi i64 [ %.pre, %..thread87_crit_edge ], [ %11, %.thread69 ]
  %16 = trunc i64 %15 to i32
  %17 = call i64 @sysconf(i32 noundef %16) #11
  store i64 %17, ptr %1, align 8
  %18 = getelementptr inbounds i8, ptr %1, i64 8
  store i32 4, ptr %18, align 8
  br label %19

19:                                               ; preds = %.thread87, %14
  ret void
}